; Function Attrs: nounwind ssp uwtable
define dso_local range(i32 -1, 1) i32 @crypto_core_ed25519_add(ptr noundef nonnull %0, ptr noundef nonnull %1, ptr noundef nonnull %2) local_unnamed_addr #0 {
  %4 = alloca %struct.ge25519_p3, align 8
  %5 = alloca %struct.ge25519_p3, align 8
  %6 = alloca %struct.ge25519_p3, align 8
  call void @llvm.lifetime.start.p0(i64 160, ptr nonnull %4) #6
  call void @llvm.lifetime.start.p0(i64 160, ptr nonnull %5) #6
  call void @llvm.lifetime.start.p0(i64 160, ptr nonnull %6) #6
  %7 = call i32 @_sodium_ge25519_frombytes(ptr noundef nonnull %4, ptr noundef nonnull %1) #6
  %.not = icmp eq i32 %7, 0
  br i1 %.not, label %8, label %17

8:                                                ; preds = %3
  %9 = call i32 @_sodium_ge25519_is_on_curve(ptr noundef nonnull %4) #6
  %10 = icmp eq i32 %9, 0
  br i1 %10, label %17, label %11

11:                                               ; preds = %8
  %12 = call i32 @_sodium_ge25519_frombytes(ptr noundef nonnull %5, ptr noundef nonnull %2) #6
  %.not3 = icmp eq i32 %12, 0
  br i1 %.not3, label %13, label %17

13:                                               ; preds = %11
  %14 = call i32 @_sodium_ge25519_is_on_curve(ptr noundef nonnull %5) #6
  %15 = icmp eq i32 %14, 0
  br i1 %15, label %17, label %16

16:                                               ; preds = %13
  call void @_sodium_ge25519_p3_add(ptr noundef nonnull %6, ptr noundef nonnull %4, ptr noundef nonnull %5) #6
  call void @_sodium_ge25519_p3_tobytes(ptr noundef nonnull %0, ptr noundef nonnull %6) #6
  br label %17

17:                                               ; preds = %3, %8, %11, %13, %16
  %.0 = phi i32 [ 0, %16 ], [ -1, %13 ], [ -1, %11 ], [ -1, %8 ], [ -1, %3 ]
  call void @llvm.lifetime.end.p0(i64 160, ptr nonnull %6) #6
  call void @llvm.lifetime.end.p0(i64 160, ptr nonnull %5) #6
  call void @llvm.lifetime.end.p0(i64 160, ptr nonnull %4) #6
  ret i32 %.0
}